target datalayout = "e-m:e-p270:32:32-p271:32:32-p272:64:64-i64:64-i128:128-f80:128-n8:16:32:64-S128"
target triple = "x86_64-pc-linux-gnu"

@hf_lbmc_extopt_cfgopt = internal global i32 0, align 4
@hf_lbmc_extopt_cfgopt_scope = internal global i32 0, align 4
@hf_lbmc_extopt_cfgopt_parent = internal global i32 0, align 4
@hf_lbmc_extopt_cfgopt_name = internal global i32 0, align 4
@hf_lbmc_extopt_cfgopt_value = internal global i32 0, align 4
@ett_lbmc_extopt_cfgopt = internal global i32 0, align 4

; Function Attrs: null_pointer_is_valid sspstrong uwtable
define internal i32 @dissect_nhdr_extopt_cfgopt(ptr noundef %0, i32 noundef %1, ptr noundef %2, ptr noundef %3) #0 {
  %5 = alloca ptr, align 8
  %6 = alloca i32, align 4
  %7 = alloca ptr, align 8
  %8 = alloca ptr, align 8
  %9 = alloca ptr, align 8
  %10 = alloca ptr, align 8
  %11 = alloca i32, align 4
  %12 = alloca i32, align 4
  %13 = alloca i32, align 4
  %14 = alloca i32, align 4
  %15 = alloca i32, align 4
  %16 = alloca i32, align 4
  %17 = alloca i32, align 4
  store ptr %0, ptr %5, align 8
  store i32 %1, ptr %6, align 4
  store ptr %2, ptr %7, align 8
  store ptr %3, ptr %8, align 8
  call void @llvm.lifetime.start.p0(i64 8, ptr %9) #16
  store ptr null, ptr %9, align 8
  call void @llvm.lifetime.start.p0(i64 8, ptr %10) #16
  store ptr null, ptr %10, align 8
  call void @llvm.lifetime.start.p0(i64 4, ptr %11) #16
  %18 = load i32, ptr %6, align 4
  store i32 %18, ptr %11, align 4
  call void @llvm.lifetime.start.p0(i64 4, ptr %12) #16
  store i32 0, ptr %12, align 4
  br label %19

19:                                               ; preds = %24, %4
  %20 = load ptr, ptr %5, align 8
  %21 = load i32, ptr %11, align 4
  %22 = call i32 @tvb_reported_length_remaining(ptr noundef %20, i32 noundef %21)
  %23 = icmp sgt i32 %22, 2
  br i1 %23, label %24, label %81

24:                                               ; preds = %19
  call void @llvm.lifetime.start.p0(i64 4, ptr %13) #16
  store i32 0, ptr %13, align 4
  call void @llvm.lifetime.start.p0(i64 4, ptr %14) #16
  store i32 0, ptr %14, align 4
  call void @llvm.lifetime.start.p0(i64 4, ptr %15) #16
  store i32 0, ptr %15, align 4
  call void @llvm.lifetime.start.p0(i64 4, ptr %16) #16
  store i32 0, ptr %16, align 4
  call void @llvm.lifetime.start.p0(i64 4, ptr %17) #16
  store i32 2, ptr %17, align 4
  %25 = load i32, ptr %11, align 4
  %26 = add i32 %25, 2
  store i32 %26, ptr %13, align 4
  %27 = load ptr, ptr %5, align 8
  %28 = load i32, ptr %13, align 4
  %29 = call i32 @tvb_strsize(ptr noundef %27, i32 noundef %28)
  store i32 %29, ptr %14, align 4
  %30 = load i32, ptr %14, align 4
  %31 = load i32, ptr %17, align 4
  %32 = add i32 %31, %30
  store i32 %32, ptr %17, align 4
  %33 = load i32, ptr %13, align 4
  %34 = load i32, ptr %14, align 4
  %35 = add i32 %33, %34
  store i32 %35, ptr %15, align 4
  %36 = load ptr, ptr %5, align 8
  %37 = load i32, ptr %15, align 4
  %38 = call i32 @tvb_strsize(ptr noundef %36, i32 noundef %37)
  store i32 %38, ptr %16, align 4
  %39 = load i32, ptr %16, align 4
  %40 = load i32, ptr %17, align 4
  %41 = add i32 %40, %39
  store i32 %41, ptr %17, align 4
  %42 = load ptr, ptr %8, align 8
  %43 = load i32, ptr @hf_lbmc_extopt_cfgopt, align 4
  %44 = load ptr, ptr %5, align 8
  %45 = load i32, ptr %11, align 4
  %46 = load i32, ptr %17, align 4
  %47 = call ptr @proto_tree_add_item(ptr noundef %42, i32 noundef %43, ptr noundef %44, i32 noundef %45, i32 noundef %46, i32 noundef 0)
  store ptr %47, ptr %9, align 8
  %48 = load ptr, ptr %9, align 8
  %49 = load i32, ptr @ett_lbmc_extopt_cfgopt, align 4
  %50 = call ptr @proto_item_add_subtree(ptr noundef %48, i32 noundef %49)
  store ptr %50, ptr %10, align 8
  %51 = load ptr, ptr %10, align 8
  %52 = load i32, ptr @hf_lbmc_extopt_cfgopt_scope, align 4
  %53 = load ptr, ptr %5, align 8
  %54 = load i32, ptr %11, align 4
  %55 = add i32 %54, 0
  %56 = call ptr @proto_tree_add_item(ptr noundef %51, i32 noundef %52, ptr noundef %53, i32 noundef %55, i32 noundef 1, i32 noundef 0)
  %57 = load ptr, ptr %10, align 8
  %58 = load i32, ptr @hf_lbmc_extopt_cfgopt_parent, align 4
  %59 = load ptr, ptr %5, align 8
  %60 = load i32, ptr %11, align 4
  %61 = add i32 %60, 0
  %62 = call ptr @proto_tree_add_item(ptr noundef %57, i32 noundef %58, ptr noundef %59, i32 noundef %61, i32 noundef 1, i32 noundef 0)
  %63 = load ptr, ptr %10, align 8
  %64 = load i32, ptr @hf_lbmc_extopt_cfgopt_name, align 4
  %65 = load ptr, ptr %5, align 8
  %66 = load i32, ptr %13, align 4
  %67 = load i32, ptr %14, align 4
  %68 = call ptr @proto_tree_add_item(ptr noundef %63, i32 noundef %64, ptr noundef %65, i32 noundef %66, i32 noundef %67, i32 noundef 0)
  %69 = load ptr, ptr %10, align 8
  %70 = load i32, ptr @hf_lbmc_extopt_cfgopt_value, align 4
  %71 = load ptr, ptr %5, align 8
  %72 = load i32, ptr %15, align 4
  %73 = load i32, ptr %16, align 4
  %74 = call ptr @proto_tree_add_item(ptr noundef %69, i32 noundef %70, ptr noundef %71, i32 noundef %72, i32 noundef %73, i32 noundef 0)
  %75 = load i32, ptr %17, align 4
  %76 = load i32, ptr %11, align 4
  %77 = add i32 %76, %75
  store i32 %77, ptr %11, align 4
  %78 = load i32, ptr %17, align 4
  %79 = load i32, ptr %12, align 4
  %80 = add i32 %79, %78
  store i32 %80, ptr %12, align 4
  call void @llvm.lifetime.end.p0(i64 4, ptr %17) #16
  call void @llvm.lifetime.end.p0(i64 4, ptr %16) #16
  call void @llvm.lifetime.end.p0(i64 4, ptr %15) #16
  call void @llvm.lifetime.end.p0(i64 4, ptr %14) #16
  call void @llvm.lifetime.end.p0(i64 4, ptr %13) #16
  br label %19, !llvm.loop !26

81:                                               ; preds = %19
  %82 = load i32, ptr %12, align 4
  call void @llvm.lifetime.end.p0(i64 4, ptr %12) #16
  call void @llvm.lifetime.end.p0(i64 4, ptr %11) #16
  call void @llvm.lifetime.end.p0(i64 8, ptr %10) #16
  call void @llvm.lifetime.end.p0(i64 8, ptr %9) #16
  ret i32 %82
}