; Function Attrs: null_pointer_is_valid sspstrong uwtable
define internal fastcc i32 @dissect_nhdr_extopt_cfgopt(ptr noundef %0, i32 noundef range(i32 0, 9) %1, ptr noundef %2) unnamed_addr #0 {
  %4 = tail call i32 @tvb_reported_length_remaining(ptr noundef %0, i32 noundef %1)
  %5 = icmp sgt i32 %4, 2
  br i1 %5, label %.lr.ph, label %._crit_edge

.lr.ph:                                           ; preds = %3, %.lr.ph
  %.02 = phi i32 [ %24, %.lr.ph ], [ %1, %3 ]
  %.0371 = phi i32 [ %25, %.lr.ph ], [ 0, %3 ]
  %6 = add i32 %.02, 2
  %7 = tail call i32 @tvb_strsize(ptr noundef %0, i32 noundef %6)
  %8 = add i32 %7, 2
  %9 = add i32 %7, %6
  %10 = tail call i32 @tvb_strsize(ptr noundef %0, i32 noundef %9)
  %11 = add i32 %8, %10
  %12 = load i32, ptr @hf_lbmc_extopt_cfgopt, align 4
  %13 = tail call ptr @proto_tree_add_item(ptr noundef %2, i32 noundef %12, ptr noundef %0, i32 noundef %.02, i32 noundef %11, i32 noundef 0)
  %14 = load i32, ptr @ett_lbmc_extopt_cfgopt, align 4
  %15 = tail call ptr @proto_item_add_subtree(ptr noundef %13, i32 noundef %14)
  %16 = load i32, ptr @hf_lbmc_extopt_cfgopt_scope, align 4
  %17 = tail call ptr @proto_tree_add_item(ptr noundef %15, i32 noundef %16, ptr noundef %0, i32 noundef %.02, i32 noundef 1, i32 noundef 0)
  %18 = load i32, ptr @hf_lbmc_extopt_cfgopt_parent, align 4
  %19 = tail call ptr @proto_tree_add_item(ptr noundef %15, i32 noundef %18, ptr noundef %0, i32 noundef %.02, i32 noundef 1, i32 noundef 0)
  %20 = load i32, ptr @hf_lbmc_extopt_cfgopt_name, align 4
  %21 = tail call ptr @proto_tree_add_item(ptr noundef %15, i32 noundef %20, ptr noundef %0, i32 noundef %6, i32 noundef %7, i32 noundef 0)
  %22 = load i32, ptr @hf_lbmc_extopt_cfgopt_value, align 4
  %23 = tail call ptr @proto_tree_add_item(ptr noundef %15, i32 noundef %22, ptr noundef %0, i32 noundef %9, i32 noundef %10, i32 noundef 0)
  %24 = add i32 %11, %.02
  %25 = add i32 %11, %.0371
  %26 = tail call i32 @tvb_reported_length_remaining(ptr noundef %0, i32 noundef %24)
  %27 = icmp sgt i32 %26, 2
  br i1 %27, label %.lr.ph, label %._crit_edge, !llvm.loop !30

._crit_edge:                                      ; preds = %.lr.ph, %3
  %.037.lcssa = phi i32 [ 0, %3 ], [ %25, %.lr.ph ]
  ret i32 %.037.lcssa
}